target datalayout = "e-m:e-p270:32:32-p271:32:32-p272:64:64-i64:64-i128:128-f80:128-n8:16:32:64-S128"
target triple = "x86_64-pc-linux-gnu"

%struct.Gia_Man_t_ = type { ptr, ptr, i32, i32, i32, i32, ptr, ptr, i32, i32, i32, ptr, ptr, %struct.Vec_Int_t_, %struct.Vec_Int_t_, i32, i32, i32, %struct.Vec_Int_t_, ptr, ptr, ptr, i32, i32, i32, i32, ptr, ptr, ptr, ptr, ptr, i32, i32, ptr, i32, ptr, ptr, ptr, ptr, ptr, ptr, ptr, ptr, ptr, ptr, ptr, ptr, ptr, ptr, ptr, ptr, ptr, ptr, %struct.Vec_Int_t_, %struct.Vec_Int_t_, ptr, ptr, ptr, ptr, ptr, ptr, ptr, ptr, ptr, ptr, ptr, ptr, ptr, ptr, ptr, ptr, ptr, ptr, ptr, ptr, ptr, i32, float, float, ptr, ptr, i32, ptr, ptr, ptr, ptr, ptr, ptr, ptr, ptr, ptr, ptr, ptr, ptr, ptr, ptr, ptr, i64, i64, ptr, ptr, i32, i32, i32, i32, i32, i32, i32, i32, i32, i32, i32, i32, ptr, ptr, ptr, ptr, ptr, ptr, ptr, ptr, i32, i32, i32, ptr, i32, i32, ptr, ptr, ptr, ptr, ptr, ptr, i32, i32, ptr, %struct.Vec_Int_t_, %struct.Vec_Int_t_, %struct.Vec_Int_t_, ptr, ptr, ptr, i32, i32, i32, i32, ptr, ptr, ptr, ptr, ptr }
%struct.Vec_Int_t_ = type { i32, i32, ptr }
%struct.Gia_Obj_t_ = type <{ i64, i32 }>

; Function Attrs: inlinehint nounwind uwtable
define internal void @Vec_IntFree(ptr noundef %0) #1 {
  %2 = alloca ptr, align 8
  store ptr %0, ptr %2, align 8, !tbaa !41
  %3 = load ptr, ptr %2, align 8, !tbaa !41
  %4 = getelementptr inbounds nuw %struct.Vec_Int_t_, ptr %3, i32 0, i32 2
  %5 = load ptr, ptr %4, align 8, !tbaa !45
  %6 = icmp ne ptr %5, null
  br i1 %6, label %7, label %13

7:                                                ; preds = %1
  %8 = load ptr, ptr %2, align 8, !tbaa !41
  %9 = getelementptr inbounds nuw %struct.Vec_Int_t_, ptr %8, i32 0, i32 2
  %10 = load ptr, ptr %9, align 8, !tbaa !45
  call void @free(ptr noundef %10) #8
  %11 = load ptr, ptr %2, align 8, !tbaa !41
  %12 = getelementptr inbounds nuw %struct.Vec_Int_t_, ptr %11, i32 0, i32 2
  store ptr null, ptr %12, align 8, !tbaa !45
  br label %14

13:                                               ; preds = %1
  br label %14

14:                                               ; preds = %13, %7
  %15 = load ptr, ptr %2, align 8, !tbaa !41
  %16 = icmp ne ptr %15, null
  br i1 %16, label %17, label %19

17:                                               ; preds = %14
  %18 = load ptr, ptr %2, align 8, !tbaa !41
  call void @free(ptr noundef %18) #8
  store ptr null, ptr %2, align 8, !tbaa !41
  br label %20

19:                                               ; preds = %14
  br label %20

20:                                               ; preds = %19, %17
  ret void
}

; Function Attrs: inlinehint nounwind uwtable
define internal ptr @Gia_ManObj(ptr noundef %0, i32 noundef %1) #1 {
  %3 = alloca ptr, align 8
  %4 = alloca i32, align 4
  store ptr %0, ptr %3, align 8, !tbaa !3
  store i32 %1, ptr %4, align 4, !tbaa !32
  %5 = load ptr, ptr %3, align 8, !tbaa !3
  %6 = getelementptr inbounds nuw %struct.Gia_Man_t_, ptr %5, i32 0, i32 6
  %7 = load ptr, ptr %6, align 8, !tbaa !33
  %8 = load i32, ptr %4, align 4, !tbaa !32
  %9 = sext i32 %8 to i64
  %10 = getelementptr inbounds %struct.Gia_Obj_t_, ptr %7, i64 %9
  ret ptr %10
}

; Function Attrs: inlinehint nounwind uwtable
define internal i32 @Vec_IntEntry(ptr noundef %0, i32 noundef %1) #1 {
  %3 = alloca ptr, align 8
  %4 = alloca i32, align 4
  store ptr %0, ptr %3, align 8, !tbaa !41
  store i32 %1, ptr %4, align 4, !tbaa !32
  %5 = load ptr, ptr %3, align 8, !tbaa !41
  %6 = getelementptr inbounds nuw %struct.Vec_Int_t_, ptr %5, i32 0, i32 2
  %7 = load ptr, ptr %6, align 8, !tbaa !45
  %8 = load i32, ptr %4, align 4, !tbaa !32
  %9 = sext i32 %8 to i64
  %10 = getelementptr inbounds i32, ptr %7, i64 %9
  %11 = load i32, ptr %10, align 4, !tbaa !32
  ret i32 %11
}

; Function Attrs: inlinehint nounwind uwtable
define internal i32 @Vec_IntSize(ptr noundef %0) #1 {
  %2 = alloca ptr, align 8
  store ptr %0, ptr %2, align 8, !tbaa !41
  %3 = load ptr, ptr %2, align 8, !tbaa !41
  %4 = getelementptr inbounds nuw %struct.Vec_Int_t_, ptr %3, i32 0, i32 1
  %5 = load i32, ptr %4, align 4, !tbaa !42
  ret i32 %5
}

; Function Attrs: inlinehint nounwind uwtable
define internal ptr @Gia_ManCi(ptr noundef %0, i32 noundef %1) #1 {
  %3 = alloca ptr, align 8
  %4 = alloca i32, align 4
  store ptr %0, ptr %3, align 8, !tbaa !3
  store i32 %1, ptr %4, align 4, !tbaa !32
  %5 = load ptr, ptr %3, align 8, !tbaa !3
  %6 = load ptr, ptr %3, align 8, !tbaa !3
  %7 = getelementptr inbounds nuw %struct.Gia_Man_t_, ptr %6, i32 0, i32 11
  %8 = load ptr, ptr %7, align 8, !tbaa !48
  %9 = load i32, ptr %4, align 4, !tbaa !32
  %10 = call i32 @Vec_IntEntry(ptr noundef %8, i32 noundef %9)
  %11 = call ptr @Gia_ManObj(ptr noundef %5, i32 noundef %10)
  ret ptr %11
}

; Function Attrs: inlinehint nounwind uwtable
define internal i32 @Gia_ManPiNum(ptr noundef %0) #1 {
  %2 = alloca ptr, align 8
  store ptr %0, ptr %2, align 8, !tbaa !3
  %3 = load ptr, ptr %2, align 8, !tbaa !3
  %4 = getelementptr inbounds nuw %struct.Gia_Man_t_, ptr %3, i32 0, i32 11
  %5 = load ptr, ptr %4, align 8, !tbaa !48
  %6 = call i32 @Vec_IntSize(ptr noundef %5)
  %7 = load ptr, ptr %2, align 8, !tbaa !3
  %8 = getelementptr inbounds nuw %struct.Gia_Man_t_, ptr %7, i32 0, i32 2
  %9 = load i32, ptr %8, align 8, !tbaa !49
  %10 = sub nsw i32 %6, %9
  ret i32 %10
}

; Function Attrs: inlinehint nounwind uwtable
define internal ptr @Gia_ManConst0(ptr noundef %0) #1 {
  %2 = alloca ptr, align 8
  store ptr %0, ptr %2, align 8, !tbaa !3
  %3 = load ptr, ptr %2, align 8, !tbaa !3
  %4 = getelementptr inbounds nuw %struct.Gia_Man_t_, ptr %3, i32 0, i32 6
  %5 = load ptr, ptr %4, align 8, !tbaa !33
  ret ptr %5
}

; Function Attrs: nounwind uwtable
define i32 @Gia_ManSeqMarkUsed(ptr noundef %0) #0 {
  %2 = alloca ptr, align 8
  %3 = alloca ptr, align 8
  %4 = alloca ptr, align 8
  %5 = alloca i32, align 4
  %6 = alloca i32, align 4
  store ptr %0, ptr %2, align 8, !tbaa !3
  call void @llvm.lifetime.start.p0(i64 8, ptr %3) #8
  call void @llvm.lifetime.start.p0(i64 8, ptr %4) #8
  call void @llvm.lifetime.start.p0(i64 4, ptr %5) #8
  call void @llvm.lifetime.start.p0(i64 4, ptr %6) #8
  store i32 0, ptr %6, align 4, !tbaa !32
  %7 = load ptr, ptr %2, align 8, !tbaa !3
  call void @Gia_ManSetMark0(ptr noundef %7)
  %8 = load ptr, ptr %2, align 8, !tbaa !3
  %9 = call ptr @Gia_ManConst0(ptr noundef %8)
  %10 = load i64, ptr %9, align 4
  %11 = and i64 %10, -1073741825
  %12 = or i64 %11, 0
  store i64 %12, ptr %9, align 4
  store i32 0, ptr %5, align 4, !tbaa !32
  br label %13

13:                                               ; preds = %30, %1
  %14 = load i32, ptr %5, align 4, !tbaa !32
  %15 = load ptr, ptr %2, align 8, !tbaa !3
  %16 = call i32 @Gia_ManPiNum(ptr noundef %15)
  %17 = icmp slt i32 %14, %16
  br i1 %17, label %18, label %23

18:                                               ; preds = %13
  %19 = load ptr, ptr %2, align 8, !tbaa !3
  %20 = load i32, ptr %5, align 4, !tbaa !32
  %21 = call ptr @Gia_ManCi(ptr noundef %19, i32 noundef %20)
  store ptr %21, ptr %4, align 8, !tbaa !8
  %22 = icmp ne ptr %21, null
  br label %23

23:                                               ; preds = %18, %13
  %24 = phi i1 [ false, %13 ], [ %22, %18 ]
  br i1 %24, label %25, label %33

25:                                               ; preds = %23
  %26 = load ptr, ptr %4, align 8, !tbaa !8
  %27 = load i64, ptr %26, align 4
  %28 = and i64 %27, -1073741825
  %29 = or i64 %28, 0
  store i64 %29, ptr %26, align 4
  br label %30

30:                                               ; preds = %25
  %31 = load i32, ptr %5, align 4, !tbaa !32
  %32 = add nsw i32 %31, 1
  store i32 %32, ptr %5, align 4, !tbaa !32
  br label %13, !llvm.loop !46

33:                                               ; preds = %23
  %34 = load ptr, ptr %2, align 8, !tbaa !3
  %35 = call ptr @Gia_ManCollectPoIds(ptr noundef %34)
  store ptr %35, ptr %3, align 8, !tbaa !41
  store i32 0, ptr %5, align 4, !tbaa !32
  br label %36

36:                                               ; preds = %57, %33
  %37 = load i32, ptr %5, align 4, !tbaa !32
  %38 = load ptr, ptr %3, align 8, !tbaa !41
  %39 = call i32 @Vec_IntSize(ptr noundef %38)
  %40 = icmp slt i32 %37, %39
  br i1 %40, label %41, label %48

41:                                               ; preds = %36
  %42 = load ptr, ptr %2, align 8, !tbaa !3
  %43 = load ptr, ptr %3, align 8, !tbaa !41
  %44 = load i32, ptr %5, align 4, !tbaa !32
  %45 = call i32 @Vec_IntEntry(ptr noundef %43, i32 noundef %44)
  %46 = call ptr @Gia_ManObj(ptr noundef %42, i32 noundef %45)
  store ptr %46, ptr %4, align 8, !tbaa !8
  %47 = icmp ne ptr %46, null
  br label %48

48:                                               ; preds = %41, %36
  %49 = phi i1 [ false, %36 ], [ %47, %41 ]
  br i1 %49, label %50, label %60

50:                                               ; preds = %48
  %51 = load ptr, ptr %2, align 8, !tbaa !3
  %52 = load ptr, ptr %4, align 8, !tbaa !8
  %53 = load ptr, ptr %3, align 8, !tbaa !41
  %54 = call i32 @Gia_ManSeqMarkUsed_rec(ptr noundef %51, ptr noundef %52, ptr noundef %53)
  %55 = load i32, ptr %6, align 4, !tbaa !32
  %56 = add nsw i32 %55, %54
  store i32 %56, ptr %6, align 4, !tbaa !32
  br label %57

57:                                               ; preds = %50
  %58 = load i32, ptr %5, align 4, !tbaa !32
  %59 = add nsw i32 %58, 1
  store i32 %59, ptr %5, align 4, !tbaa !32
  br label %36, !llvm.loop !47

60:                                               ; preds = %48
  %61 = load ptr, ptr %3, align 8, !tbaa !41
  call void @Vec_IntFree(ptr noundef %61)
  %62 = load i32, ptr %6, align 4, !tbaa !32
  call void @llvm.lifetime.end.p0(i64 4, ptr %6) #8
  call void @llvm.lifetime.end.p0(i64 4, ptr %5) #8
  call void @llvm.lifetime.end.p0(i64 8, ptr %4) #8
  call void @llvm.lifetime.end.p0(i64 8, ptr %3) #8
  ret i32 %62
}