; Function Attrs: nounwind uwtable
define i32 @Gia_ManSeqMarkUsed(ptr noundef %0) local_unnamed_addr #1 {
  tail call void @Gia_ManSetMark0(ptr noundef %0) #8
  %2 = getelementptr i8, ptr %0, i64 32
  %.val30 = load ptr, ptr %2, align 8, !tbaa !28
  %3 = load i64, ptr %.val30, align 4
  %4 = and i64 %3, -1073741825
  store i64 %4, ptr %.val30, align 4
  %5 = getelementptr i8, ptr %0, i64 16
  %6 = getelementptr i8, ptr %0, i64 64
  %.val2833 = load i32, ptr %5, align 8, !tbaa !42
  %.val2934 = load ptr, ptr %6, align 8, !tbaa !43
  %7 = getelementptr i8, ptr %.val2934, i64 4
  %.val29.val35 = load i32, ptr %7, align 4, !tbaa !38
  %8 = icmp sgt i32 %.val29.val35, %.val2833
  br i1 %8, label %.lr.ph, label %.critedge

.lr.ph:                                           ; preds = %1, %9
  %indvars.iv = phi i64 [ %indvars.iv.next, %9 ], [ 0, %1 ]
  %.val2937 = phi ptr [ %.val29, %9 ], [ %.val2934, %1 ]
  %.val31 = load ptr, ptr %2, align 8, !tbaa !28
  %.not = icmp eq ptr %.val31, null
  br i1 %.not, label %.critedge, label %9

9:                                                ; preds = %.lr.ph
  %10 = getelementptr i8, ptr %.val2937, i64 8
  %.val32.val = load ptr, ptr %10, align 8, !tbaa !39
  %11 = getelementptr inbounds nuw i32, ptr %.val32.val, i64 %indvars.iv
  %12 = load i32, ptr %11, align 4, !tbaa !29
  %13 = sext i32 %12 to i64
  %14 = getelementptr inbounds %struct.Gia_Obj_t_, ptr %.val31, i64 %13
  %15 = load i64, ptr %14, align 4
  %16 = and i64 %15, -1073741825
  store i64 %16, ptr %14, align 4
  %indvars.iv.next = add nuw nsw i64 %indvars.iv, 1
  %.val28 = load i32, ptr %5, align 8, !tbaa !42
  %.val29 = load ptr, ptr %6, align 8, !tbaa !43
  %17 = getelementptr i8, ptr %.val29, i64 4
  %.val29.val = load i32, ptr %17, align 4, !tbaa !38
  %18 = sub nsw i32 %.val29.val, %.val28
  %19 = sext i32 %18 to i64
  %20 = icmp slt i64 %indvars.iv.next, %19
  br i1 %20, label %.lr.ph, label %.critedge, !llvm.loop !45

.critedge:                                        ; preds = %.lr.ph, %9, %1
  %21 = tail call ptr @Gia_ManCollectPoIds(ptr noundef nonnull %0) #8
  %22 = getelementptr i8, ptr %21, i64 4
  %.val2639 = load i32, ptr %22, align 4, !tbaa !38
  %23 = icmp sgt i32 %.val2639, 0
  br i1 %23, label %.lr.ph42, label %.critedge2

.lr.ph42:                                         ; preds = %.critedge
  %24 = getelementptr i8, ptr %21, i64 8
  br label %25

25:                                               ; preds = %.lr.ph42, %26
  %indvars.iv46 = phi i64 [ 0, %.lr.ph42 ], [ %indvars.iv.next47, %26 ]
  %.041 = phi i32 [ 0, %.lr.ph42 ], [ %32, %26 ]
  %.val = load ptr, ptr %2, align 8, !tbaa !28
  %.not25 = icmp eq ptr %.val, null
  br i1 %.not25, label %.critedge2, label %26

26:                                               ; preds = %25
  %.val27 = load ptr, ptr %24, align 8, !tbaa !39
  %27 = getelementptr inbounds nuw i32, ptr %.val27, i64 %indvars.iv46
  %28 = load i32, ptr %27, align 4, !tbaa !29
  %29 = sext i32 %28 to i64
  %30 = getelementptr inbounds %struct.Gia_Obj_t_, ptr %.val, i64 %29
  %31 = tail call i32 @Gia_ManSeqMarkUsed_rec(ptr noundef nonnull %0, ptr noundef nonnull %30, ptr noundef nonnull %21)
  %32 = add nsw i32 %31, %.041
  %indvars.iv.next47 = add nuw nsw i64 %indvars.iv46, 1
  %.val26 = load i32, ptr %22, align 4, !tbaa !38
  %33 = sext i32 %.val26 to i64
  %34 = icmp slt i64 %indvars.iv.next47, %33
  br i1 %34, label %25, label %.critedge2, !llvm.loop !46

.critedge2:                                       ; preds = %25, %26, %.critedge
  %.0.lcssa = phi i32 [ 0, %.critedge ], [ %32, %26 ], [ %.041, %25 ]
  %35 = getelementptr inbounds nuw i8, ptr %21, i64 8
  %36 = load ptr, ptr %35, align 8, !tbaa !39
  %.not.i = icmp eq ptr %36, null
  br i1 %.not.i, label %Vec_IntFree.exit, label %37

37:                                               ; preds = %.critedge2
  tail call void @free(ptr noundef nonnull %36) #8
  br label %Vec_IntFree.exit

Vec_IntFree.exit:                                 ; preds = %.critedge2, %37
  tail call void @free(ptr noundef nonnull %21) #8
  ret i32 %.0.lcssa
}